; Function Attrs: nounwind uwtable
define internal void @FreeMatShaper(ptr noundef %0, ptr noundef %1) #0 {
  %.not = icmp eq ptr %1, null
  br i1 %.not, label %4, label %3

3:                                                ; preds = %2
  tail call void @_cmsFree(ptr noundef %0, ptr noundef nonnull %1) #10
  br label %4

4:                                                ; preds = %3, %2
  ret void
}